; Function Attrs: mustprogress null_pointer_is_valid sspstrong uwtable
define void @_ZN20PacketFormatGroupBox24on_bytesCheckBox_toggledEb(ptr noundef align 8 dereferenceable_or_null(48) %0, i1 noundef zeroext %1) local_unnamed_addr #0 align 2 {
  %3 = getelementptr inbounds nuw i8, ptr %0, i64 40
  %4 = load ptr, ptr %3, align 8
  %5 = getelementptr inbounds nuw i8, ptr %4, i64 64
  %6 = load ptr, ptr %5, align 8
  tail call void @_ZN7QWidget10setEnabledEb(ptr noundef align 8 dereferenceable_or_null(40) %6, i1 noundef zeroext %1)
  %7 = load ptr, ptr %3, align 8
  %8 = getelementptr inbounds nuw i8, ptr %7, i64 72
  %9 = load ptr, ptr %8, align 8
  tail call void @_ZN7QWidget10setEnabledEb(ptr noundef align 8 dereferenceable_or_null(40) %9, i1 noundef zeroext %1)
  tail call void @_ZN20PacketFormatGroupBox13formatChangedEv(ptr noundef align 8 dereferenceable_or_null(48) %0)
  ret void
}